Certificate:
    Data:
        Version: 3 (0x2)
        Serial Number: 11993374131299301323 (0xa671063a927437cb)
    Signature Algorithm: sha1WithRSAEncryption
        Issuer: C=US, ST=California, O=Qualcomm Connected Experiences, Inc., CN=AllPlay CA
        Validity
            Not Before: Jan  1 00:00:00 1970 GMT
            Not After : Dec 31 23:59:59 2049 GMT
        Subject: C=US, ST=California, O=Qualcomm Connected Experiences, Inc., CN=AllPlay CA
        Subject Public Key Info:
            Public Key Algorithm: rsaEncryption
                Public-Key: (2048 bit)
                Modulus:
                    00:ce:b6:f7:dc:35:14:52:ed:bc:d2:dc:3b:ef:a4:
                    f4:c0:a2:e9:87:27:42:fa:98:ab:c2:9d:fb:b4:b6:
                    8d:84:af:4c:9c:37:4c:79:22:5a:26:5a:10:10:6e:
                    d8:5f:30:c2:52:fd:d3:5a:37:0f:32:59:25:41:ff:
                    c4:28:15:80:fa:3e:76:9d:86:eb:61:d1:20:09:de:
                    31:cc:e9:f6:52:74:da:82:92:c5:d1:d0:22:af:b2:
                    7d:c0:b8:74:03:0c:1b:ea:ff:b7:f4:37:94:5d:7a:
                    a6:6e:dc:ec:3e:2a:06:1e:c6:a2:9c:34:06:de:4c:
                    cd:40:e1:7b:26:72:82:1d:16:c3:9b:f9:e6:a9:d4:
                    79:6f:9a:dd:a7:4a:74:f2:b4:2d:e7:86:40:3c:2f:
                    f4:85:99:0a:94:d1:06:73:99:61:0f:08:79:ad:fa:
                    b9:e0:62:09:9a:0f:1b:42:e3:0a:89:5a:ee:18:ce:
                    4d:e6:97:61:97:1d:da:43:84:e6:05:27:aa:d3:42:
                    f4:49:b5:3d:5c:30:d4:c6:8c:b8:eb:e5:28:46:01:
                    ac:03:30:ec:8b:5e:04:02:de:5f:6c:de:9e:6a:70:
                    ad:e1:7b:9f:ae:10:71:01:60:92:52:c2:f4:54:c8:
                    f5:f6:17:4d:a4:54:6d:3e:ad:3e:24:a0:98:fa:c2:
                    cd:db
                Exponent: 65537 (0x10001)
        X509v3 extensions:
            X509v3 Subject Key Identifier: 
                4B:B5:46:8A:2F:B5:BD:54:5C:1D:40:D1:DB:2B:47:4B:23:29:7E:E2
            X509v3 Authority Key Identifier: 
                keyid:4B:B5:46:8A:2F:B5:BD:54:5C:1D:40:D1:DB:2B:47:4B:23:29:7E:E2
                DirName:/C=US/ST=California/O=Qualcomm Connected Experiences, Inc./CN=AllPlay CA
                serial:A6:71:06:3A:92:74:37:CB

            X509v3 Basic Constraints: 
                CA:TRUE
    Signature Algorithm: sha1WithRSAEncryption
         cb:33:1d:cb:95:5a:15:47:5d:49:83:ac:c0:0d:96:56:6f:78:
         23:c1:e2:15:2a:8a:95:66:7c:bc:ee:28:fd:27:af:17:74:fc:
         7c:7d:a7:3a:0b:ba:df:a1:92:1e:ff:0c:c1:e0:cd:1e:11:93:
         4c:f7:99:0e:46:d6:33:c6:2b:d7:f0:01:e2:85:0c:16:c0:23:
         29:5a:dd:af:e2:f0:66:80:ec:c4:67:35:c4:8b:a9:30:6b:46:
         81:8e:5e:31:b7:f4:f1:8a:86:32:55:df:66:9d:65:9c:d1:69:
         cc:c6:09:ed:f9:49:26:75:3d:79:24:a5:df:c8:3a:74:b6:8a:
         9e:02:3f:f1:ee:ea:05:07:e2:f1:77:ea:06:b2:f2:d6:3e:55:
         2a:80:3d:30:38:4d:c0:23:e0:ed:5d:88:57:84:30:2c:69:d8:
         9d:f5:47:c4:8f:e3:a4:7c:d1:17:4a:9b:bd:4c:fb:1b:24:09:
         8c:93:00:61:f6:1c:33:2b:4c:43:a9:f9:ae:39:0c:a2:80:58:
         68:b9:09:dd:f1:4d:f4:07:1e:a7:5f:bb:32:2c:fd:99:16:69:
         b7:19:d3:d5:76:b9:8d:d5:55:e0:12:83:7c:86:91:82:8c:80:
         f1:8c:b8:ac:68:0c:e9:f9:5e:55:1b:48:8c:d4:29:dd:3e:a7:
         f7:cf:d1:cd
-----BEGIN CERTIFICATE-----
MIIEGzCCAwOgAwIBAgIJAKZxBjqSdDfLMA0GCSqGSIb3DQEBBQUAMGYxCzAJBgNV
BAYTAlVTMRMwEQYDVQQIDApDYWxpZm9ybmlhMS0wKwYDVQQKDCRRdWFsY29tbSBD
b25uZWN0ZWQgRXhwZXJpZW5jZXMsIEluYy4xEzARBgNVBAMMCkFsbFBsYXkgQ0Ew
HhcNNzAwMTAxMDAwMDAwWhcNNDkxMjMxMjM1OTU5WjBmMQswCQYDVQQGEwJVUzET
MBEGA1UECAwKQ2FsaWZvcm5pYTEtMCsGA1UECgwkUXVhbGNvbW0gQ29ubmVjdGVk
IEV4cGVyaWVuY2VzLCBJbmMuMRMwEQYDVQQDDApBbGxQbGF5IENBMIIBIjANBgkq
hkiG9w0BAQEFAAOCAQ8AMIIBCgKCAQEAzrb33DUUUu280tw776T0wKLphydC+pir
wp37tLaNhK9MnDdMeSJaJloQEG7YXzDCUv3TWjcPMlklQf/EKBWA+j52nYbrYdEg
Cd4xzOn2UnTagpLF0dAir7J9wLh0Awwb6v+39DeUXXqmbtzsPioGHsainDQG3kzN
QOF7JnKCHRbDm/nmqdR5b5rdp0p08rQt54ZAPC/0hZkKlNEGc5lhDwh5rfq54GIJ
mg8bQuMKiVruGM5N5pdhlx3aQ4TmBSeq00L0SbU9XDDUxoy46+UoRgGsAzDsi14E
At5fbN6eanCt4XufrhBxAWCSUsL0VMj19hdNpFRtPq0+JKCY+sLN2wIDAQABo4HL
MIHIMB0GA1UdDgQWBBRLtUaKL7W9VFwdQNHbK0dLIyl+4jCBmAYDVR0jBIGQMIGN
gBRLtUaKL7W9VFwdQNHbK0dLIyl+4qFqpGgwZjELMAkGA1UEBhMCVVMxEzARBgNV
BAgMCkNhbGlmb3JuaWExLTArBgNVBAoMJFF1YWxjb21tIENvbm5lY3RlZCBFeHBl
cmllbmNlcywgSW5jLjETMBEGA1UEAwwKQWxsUGxheSBDQYIJAKZxBjqSdDfLMAwG
A1UdEwQFMAMBAf8wDQYJKoZIhvcNAQEFBQADggEBAMszHcuVWhVHXUmDrMANllZv
eCPB4hUqipVmfLzuKP0nrxd0/Hx9pzoLut+hkh7/DMHgzR4Rk0z3mQ5G1jPGK9fw
AeKFDBbAIyla3a/i8GaA7MRnNcSLqTBrRoGOXjG39PGKhjJV32adZZzRaczGCe35
SSZ1PXkkpd/IOnS2ip4CP/Hu6gUH4vF36gay8tY+VSqAPTA4TcAj4O1diFeEMCxp
2J31R8SP46R80RdKm71M+xskCYyTAGH2HDMrTEOp+a45DKKAWGi5Cd3xTfQHHqdf
uzIs/ZkWabcZ09V2uY3VVeASg3yGkYKMgPGMuKxoDOn5XlUbSIzUKd0+p/fP0c0=
-----END CERTIFICATE-----
