Certificate:
    Data:
        Version: 3 (0x2)
        Serial Number: 11993374131299301324 (0xa671063a927437cc)
    Signature Algorithm: sha1WithRSAEncryption
        Issuer: C=US, ST=California, O=Qualcomm Connected Experiences, Inc., CN=AllPlay CA
        Validity
            Not Before: Jan  1 00:00:00 1970 GMT
            Not After : Dec 31 23:59:59 2049 GMT
        Subject: C=US, ST=California, O=Qualcomm Connected Experiences, Inc., CN=AllPlay firmware oem
        Subject Public Key Info:
            Public Key Algorithm: rsaEncryption
                Public-Key: (2048 bit)
                Modulus:
                    00:ba:d7:c4:bf:2c:32:a5:f0:90:eb:af:3e:66:c9:
                    04:78:52:0b:19:d8:40:78:48:6a:c1:bd:52:1e:e4:
                    05:39:75:4d:63:23:61:23:d2:b9:32:17:74:05:2b:
                    a2:e0:0c:50:3f:82:c2:2b:49:9a:26:4f:81:04:d3:
                    a1:8f:5c:36:e7:25:19:e5:e2:00:82:9d:46:c0:0a:
                    11:ee:f9:8b:f5:74:13:bf:e7:ab:de:27:89:86:e8:
                    51:13:83:3d:ee:a9:b6:06:e6:39:0b:31:87:ad:eb:
                    b2:f7:b4:46:27:06:4d:bb:04:f0:51:60:c9:5a:05:
                    51:47:b2:13:b5:b4:f4:f9:1d:85:51:88:45:aa:79:
                    41:94:fb:80:d7:95:76:37:f9:25:3f:c7:13:40:1f:
                    a4:82:db:ae:e8:21:a3:04:36:81:8c:d9:21:3a:ff:
                    7c:8e:28:74:d3:9e:43:cb:32:62:7c:e5:8f:a2:02:
                    80:43:bf:49:6e:a9:34:15:f7:a3:8f:56:a0:92:79:
                    9c:ed:27:17:2b:5c:06:5d:38:3f:79:ad:e4:70:3b:
                    02:00:de:fb:8d:c4:d4:58:b7:cb:17:06:ff:f1:1a:
                    90:40:b8:ba:2e:47:e2:fa:20:1e:fb:0b:05:fe:45:
                    b9:7e:4f:cd:76:78:48:2a:fd:3a:20:00:7c:a0:dd:
                    d0:5d
                Exponent: 65537 (0x10001)
        X509v3 extensions:
            X509v3 Basic Constraints: 
                CA:FALSE
            Netscape Comment: 
                OpenSSL Generated Certificate
            X509v3 Subject Key Identifier: 
                73:D5:18:9C:9F:C9:56:1F:B0:FB:9B:F0:74:33:07:3D:8C:6D:1F:39
            X509v3 Authority Key Identifier: 
                keyid:4B:B5:46:8A:2F:B5:BD:54:5C:1D:40:D1:DB:2B:47:4B:23:29:7E:E2

    Signature Algorithm: sha1WithRSAEncryption
         cd:df:33:0c:91:a9:79:86:25:10:e6:8d:98:d9:e2:70:37:26:
         fd:7f:d7:4a:24:a1:f9:f4:cd:f5:62:a1:24:6a:e0:b9:14:54:
         cc:5b:0b:d7:82:6e:9f:01:95:c6:0f:c0:df:fc:93:1e:b0:f7:
         86:5f:ce:eb:af:1f:20:89:5b:bf:46:d9:57:a4:62:fb:1c:93:
         cb:06:3f:0f:74:24:c0:6c:58:0d:0e:25:77:a8:ec:74:1d:a0:
         63:2e:43:fc:4f:72:35:1b:20:9b:63:83:df:85:ff:0d:bd:32:
         a2:a8:bf:f2:a4:de:48:00:bc:86:57:b3:7b:7b:22:47:72:6d:
         cf:44:a8:3d:61:ce:41:44:44:a5:f5:49:06:2f:df:f4:00:7b:
         ab:6e:a3:7a:cc:3f:d3:e0:68:83:a2:ad:73:c3:0c:3c:b2:96:
         54:4f:f6:b3:89:df:20:2c:c4:89:45:cb:47:dc:55:9d:5b:4b:
         6d:32:2a:00:d6:8f:a2:1c:07:9b:f4:10:81:2c:be:db:98:4a:
         a3:01:d7:33:04:1e:ee:0f:4a:0a:25:df:b0:25:ce:4f:a8:b2:
         96:1f:1b:75:6c:a5:a0:89:b4:2e:90:c5:27:2a:ca:c9:4c:e0:
         4f:5f:b6:ce:9c:01:d8:0d:03:1c:8f:46:0c:79:41:0a:db:ce:
         6d:db:4d:ec
-----BEGIN CERTIFICATE-----
MIID1DCCArygAwIBAgIJAKZxBjqSdDfMMA0GCSqGSIb3DQEBBQUAMGYxCzAJBgNV
BAYTAlVTMRMwEQYDVQQIDApDYWxpZm9ybmlhMS0wKwYDVQQKDCRRdWFsY29tbSBD
b25uZWN0ZWQgRXhwZXJpZW5jZXMsIEluYy4xEzARBgNVBAMMCkFsbFBsYXkgQ0Ew
HhcNNzAwMTAxMDAwMDAwWhcNNDkxMjMxMjM1OTU5WjBwMQswCQYDVQQGEwJVUzET
MBEGA1UECAwKQ2FsaWZvcm5pYTEtMCsGA1UECgwkUXVhbGNvbW0gQ29ubmVjdGVk
IEV4cGVyaWVuY2VzLCBJbmMuMR0wGwYDVQQDDBRBbGxQbGF5IGZpcm13YXJlIG9l
bTCCASIwDQYJKoZIhvcNAQEBBQADggEPADCCAQoCggEBALrXxL8sMqXwkOuvPmbJ
BHhSCxnYQHhIasG9Uh7kBTl1TWMjYSPSuTIXdAUrouAMUD+CwitJmiZPgQTToY9c
NuclGeXiAIKdRsAKEe75i/V0E7/nq94niYboURODPe6ptgbmOQsxh63rsve0RicG
TbsE8FFgyVoFUUeyE7W09PkdhVGIRap5QZT7gNeVdjf5JT/HE0AfpILbrughowQ2
gYzZITr/fI4odNOeQ8syYnzlj6ICgEO/SW6pNBX3o49WoJJ5nO0nFytcBl04P3mt
5HA7AgDe+43E1Fi3yxcG//EakEC4ui5H4vogHvsLBf5FuX5PzXZ4SCr9OiAAfKDd
0F0CAwEAAaN7MHkwCQYDVR0TBAIwADAsBglghkgBhvhCAQ0EHxYdT3BlblNTTCBH
ZW5lcmF0ZWQgQ2VydGlmaWNhdGUwHQYDVR0OBBYEFHPVGJyfyVYfsPub8HQzBz2M
bR85MB8GA1UdIwQYMBaAFEu1Roovtb1UXB1A0dsrR0sjKX7iMA0GCSqGSIb3DQEB
BQUAA4IBAQDN3zMMkal5hiUQ5o2Y2eJwNyb9f9dKJKH59M31YqEkauC5FFTMWwvX
gm6fAZXGD8Df/JMesPeGX87rrx8giVu/RtlXpGL7HJPLBj8PdCTAbFgNDiV3qOx0
HaBjLkP8T3I1GyCbY4Pfhf8NvTKiqL/ypN5IALyGV7N7eyJHcm3PRKg9Yc5BRESl
9UkGL9/0AHurbqN6zD/T4GiDoq1zwww8spZUT/azid8gLMSJRctH3FWdW0ttMioA
1o+iHAeb9BCBLL7bmEqjAdczBB7uD0oKJd+wJc5PqLKWHxt1bKWgibQukMUnKsrJ
TOBPX7bOnAHYDQMcj0YMeUEK285t203s
-----END CERTIFICATE-----
