Certificate:
    Data:
        Version: 3 (0x2)
        Serial Number: 11993374131299301325 (0xa671063a927437cd)
    Signature Algorithm: sha1WithRSAEncryption
        Issuer: C=US, ST=California, O=Qualcomm Connected Experiences, Inc., CN=AllPlay CA
        Validity
            Not Before: Jan  1 00:00:00 1970 GMT
            Not After : Dec 31 23:59:59 2049 GMT
        Subject: C=US, ST=California, O=Qualcomm Connected Experiences, Inc., CN=AllPlay firmware sam
        Subject Public Key Info:
            Public Key Algorithm: rsaEncryption
                Public-Key: (2048 bit)
                Modulus:
                    00:a5:2b:32:f4:0c:79:5e:92:9b:ed:97:5a:42:e5:
                    c1:08:09:cd:7b:1a:13:25:7f:c4:1d:8e:f6:17:36:
                    1b:de:1a:2a:66:f5:f2:3d:d5:e3:59:d6:da:7d:2f:
                    7f:27:c3:5e:35:57:6a:cb:1e:0a:76:a9:8b:8e:4d:
                    8c:3c:2c:c2:34:db:f6:eb:fe:1e:08:d7:bd:e4:41:
                    e6:3a:45:c4:6f:f1:47:ff:1f:39:44:fe:1c:dc:c6:
                    e9:db:af:bb:4c:ac:f8:d5:c5:1e:0b:3e:8d:9d:de:
                    19:5f:e5:c9:43:ab:10:e0:a4:5d:ac:af:66:4f:57:
                    78:8b:f2:70:95:17:ef:7e:5d:30:db:ab:7d:91:cb:
                    8b:3b:d1:6d:f1:a7:d8:5b:ab:b2:ff:7c:ab:71:9b:
                    e6:67:4e:3a:73:1a:81:99:92:48:85:c9:25:af:1f:
                    56:02:f1:92:e3:3d:a5:b9:0b:7e:5e:8b:bf:f3:84:
                    9b:ca:90:25:08:98:15:02:79:bd:eb:ec:13:e3:82:
                    99:17:67:99:fa:db:09:ba:0d:1e:82:41:b9:ab:fd:
                    64:33:10:83:f2:86:af:5c:7d:d7:83:31:1a:97:28:
                    a8:d9:77:51:50:ae:c3:5a:f7:80:a8:32:b1:b1:b6:
                    39:74:76:b7:48:5c:bd:ff:3f:6b:d8:7d:3a:a8:39:
                    7e:df
                Exponent: 65537 (0x10001)
        X509v3 extensions:
            X509v3 Basic Constraints: 
                CA:FALSE
            Netscape Comment: 
                OpenSSL Generated Certificate
            X509v3 Subject Key Identifier: 
                8B:94:2B:B1:7A:EB:1B:5C:00:CA:89:E4:02:BC:A1:C8:30:21:ED:E5
            X509v3 Authority Key Identifier: 
                keyid:4B:B5:46:8A:2F:B5:BD:54:5C:1D:40:D1:DB:2B:47:4B:23:29:7E:E2

    Signature Algorithm: sha1WithRSAEncryption
         b8:b3:65:40:db:43:73:b7:0d:fe:67:19:26:af:df:89:ba:a1:
         61:fc:32:65:c1:95:57:84:c2:01:0c:e4:2c:e9:d1:62:93:5d:
         1b:ee:d3:03:85:2c:6c:b1:bf:08:3f:e1:10:85:9d:e0:e1:87:
         b6:b7:bd:70:26:69:94:5d:d4:ac:7f:75:7d:a8:0c:8e:78:c7:
         21:9e:f0:78:25:2b:83:ff:6a:46:b8:fd:e1:18:9c:0b:5b:3c:
         7b:d0:e7:77:ef:17:fe:7b:10:30:4c:aa:ed:49:ad:ef:14:c9:
         27:24:5b:f8:11:b2:4f:0a:5b:df:4a:96:e8:c5:97:ad:bc:a2:
         78:c0:b6:a5:8d:d0:35:30:e0:01:e3:52:08:81:dc:fc:97:e1:
         41:34:cb:dc:ee:43:ab:67:19:19:2d:1e:92:d2:38:ad:a6:36:
         29:14:f9:8e:0c:90:76:53:49:1c:5b:b4:80:f3:09:79:29:c8:
         8b:9a:84:d1:65:79:44:34:7c:33:7e:1c:4d:fa:29:7c:f1:6b:
         e0:28:fc:6f:ce:43:53:9a:3d:8d:64:c4:d9:75:56:6d:d8:89:
         d0:56:32:f7:41:3d:18:43:bd:03:66:8d:7e:bf:f8:cd:66:b9:
         b8:19:6d:7c:51:36:df:fa:e7:7b:eb:db:37:d3:79:32:cf:0c:
         88:d7:75:59
-----BEGIN CERTIFICATE-----
MIID1DCCArygAwIBAgIJAKZxBjqSdDfNMA0GCSqGSIb3DQEBBQUAMGYxCzAJBgNV
BAYTAlVTMRMwEQYDVQQIDApDYWxpZm9ybmlhMS0wKwYDVQQKDCRRdWFsY29tbSBD
b25uZWN0ZWQgRXhwZXJpZW5jZXMsIEluYy4xEzARBgNVBAMMCkFsbFBsYXkgQ0Ew
HhcNNzAwMTAxMDAwMDAwWhcNNDkxMjMxMjM1OTU5WjBwMQswCQYDVQQGEwJVUzET
MBEGA1UECAwKQ2FsaWZvcm5pYTEtMCsGA1UECgwkUXVhbGNvbW0gQ29ubmVjdGVk
IEV4cGVyaWVuY2VzLCBJbmMuMR0wGwYDVQQDDBRBbGxQbGF5IGZpcm13YXJlIHNh
bTCCASIwDQYJKoZIhvcNAQEBBQADggEPADCCAQoCggEBAKUrMvQMeV6Sm+2XWkLl
wQgJzXsaEyV/xB2O9hc2G94aKmb18j3V41nW2n0vfyfDXjVXasseCnapi45NjDws
wjTb9uv+HgjXveRB5jpFxG/xR/8fOUT+HNzG6duvu0ys+NXFHgs+jZ3eGV/lyUOr
EOCkXayvZk9XeIvycJUX735dMNurfZHLizvRbfGn2Fursv98q3Gb5mdOOnMagZmS
SIXJJa8fVgLxkuM9pbkLfl6Lv/OEm8qQJQiYFQJ5vevsE+OCmRdnmfrbCboNHoJB
uav9ZDMQg/KGr1x914MxGpcoqNl3UVCuw1r3gKgysbG2OXR2t0hcvf8/a9h9Oqg5
ft8CAwEAAaN7MHkwCQYDVR0TBAIwADAsBglghkgBhvhCAQ0EHxYdT3BlblNTTCBH
ZW5lcmF0ZWQgQ2VydGlmaWNhdGUwHQYDVR0OBBYEFIuUK7F66xtcAMqJ5AK8ocgw
Ie3lMB8GA1UdIwQYMBaAFEu1Roovtb1UXB1A0dsrR0sjKX7iMA0GCSqGSIb3DQEB
BQUAA4IBAQC4s2VA20Nztw3+Zxkmr9+JuqFh/DJlwZVXhMIBDOQs6dFik10b7tMD
hSxssb8IP+EQhZ3g4Ye2t71wJmmUXdSsf3V9qAyOeMchnvB4JSuD/2pGuP3hGJwL
Wzx70Od37xf+exAwTKrtSa3vFMknJFv4EbJPClvfSpboxZetvKJ4wLaljdA1MOAB
41IIgdz8l+FBNMvc7kOrZxkZLR6S0jitpjYpFPmODJB2U0kcW7SA8wl5KciLmoTR
ZXlENHwzfhxN+il88WvgKPxvzkNTmj2NZMTZdVZt2InQVjL3QT0YQ70DZo1+v/jN
Zrm4GW18UTbf+ud769s303kyzwyI13VZ
-----END CERTIFICATE-----
