Certificate:
    Data:
        Version: 3 (0x2)
        Serial Number: 18271587361707953304 (0xfd91b7e6011e8c98)
    Signature Algorithm: sha1WithRSAEncryption
        Issuer: C=US, ST=California, O=Qualcomm Connected Experiences, Inc., CN=AllPlay CA
        Validity
            Not Before: Jan  1 00:00:00 1970 GMT
            Not After : Dec 31 23:59:59 2049 GMT
        Subject: C=US, ST=California, O=Qualcomm Connected Experiences, Inc., CN=AllPlay firmware sam
        Subject Public Key Info:
            Public Key Algorithm: rsaEncryption
                Public-Key: (2048 bit)
                Modulus:
                    00:a7:b4:23:7d:9e:26:3b:90:f3:8d:aa:cb:95:52:
                    b2:21:d3:c7:e5:df:c6:05:51:69:21:97:09:15:22:
                    78:44:d3:a0:17:61:78:ab:6a:79:3c:8f:13:a5:2c:
                    b2:6d:96:aa:67:d3:ff:94:82:55:79:a9:84:91:b7:
                    b9:70:d7:b9:0b:97:ad:50:f7:a0:05:00:f1:60:c8:
                    5e:63:14:6c:9e:5c:d1:26:46:92:c1:c9:19:19:30:
                    a4:66:fe:5d:cb:2a:07:71:8e:ba:13:77:3c:28:04:
                    aa:a4:93:fa:d5:55:56:44:e9:6c:29:fe:60:0d:ba:
                    20:a7:3f:e5:23:88:e7:4a:0e:49:27:c0:b2:d4:b3:
                    d6:28:27:0d:6c:4f:62:49:10:08:28:13:3f:a8:34:
                    a5:cd:f6:4d:8a:c8:54:a6:44:44:c2:73:b8:89:08:
                    a9:ff:c0:b0:cf:af:f7:0e:b2:db:9d:d5:a7:a7:5a:
                    f8:7f:03:35:40:51:96:a1:f1:52:ff:a1:ed:16:9b:
                    96:4b:fb:99:d0:37:d2:b0:fb:ca:fc:d7:09:df:8a:
                    ec:9f:87:a4:3f:d2:0f:5e:f0:18:13:98:b7:ce:05:
                    90:18:41:88:d3:68:c4:00:a6:86:00:89:79:1c:dd:
                    eb:09:5e:0f:fa:86:37:06:3e:49:64:07:eb:23:96:
                    bd:d9
                Exponent: 65537 (0x10001)
        X509v3 extensions:
            X509v3 Basic Constraints: 
                CA:FALSE
            Netscape Comment: 
                OpenSSL Generated Certificate
            X509v3 Subject Key Identifier: 
                B6:EF:C3:F4:AB:46:1B:C0:F2:51:41:D2:32:9B:03:7F:5F:5F:FF:D5
            X509v3 Authority Key Identifier: 
                keyid:0D:A3:28:C8:1D:E4:C9:D8:3A:DE:75:51:7C:10:98:91:92:D1:A5:C8

    Signature Algorithm: sha1WithRSAEncryption
         12:18:be:a8:22:19:89:e8:d7:5a:3b:f3:16:fd:f6:7d:2b:64:
         b2:ca:24:be:02:2f:a7:0b:ca:4d:cd:ce:71:a8:3d:ee:8f:80:
         ca:a0:67:29:23:2d:d8:e5:df:e7:00:07:6b:27:05:2a:42:81:
         54:cf:a0:1e:c4:43:23:f1:6f:82:8a:f1:d1:08:27:2a:d9:4f:
         d1:41:40:e5:e4:70:04:a0:13:8b:8a:9f:e6:d5:1e:5d:54:5b:
         90:50:7e:a1:8b:b8:14:f9:60:2b:c8:a8:11:97:87:f1:17:04:
         24:a1:6b:a7:95:d7:1c:fa:d1:56:94:c6:d5:a9:f3:1f:c0:a3:
         f3:1f:e0:67:07:33:0a:d6:b7:3d:5f:29:af:f7:d1:74:ad:7b:
         37:94:72:c7:d3:79:93:9a:05:2d:34:ab:fc:eb:85:3c:2f:37:
         ab:9e:44:26:46:bc:de:e6:bd:eb:8c:8e:65:f6:4b:70:19:3d:
         0b:8c:26:b0:d1:47:01:7b:8d:5d:13:23:8d:ed:79:c3:79:d0:
         4c:42:4d:21:11:5e:ee:5e:99:82:30:7d:f8:81:80:46:78:94:
         23:29:55:6e:32:96:cc:04:b8:4f:d4:1b:74:75:fa:2e:cd:51:
         47:4e:dd:08:73:f9:df:8a:04:9a:9f:b4:e4:12:5a:f1:dd:48:
         8a:d0:93:5f
-----BEGIN CERTIFICATE-----
MIID1DCCArygAwIBAgIJAP2Rt+YBHoyYMA0GCSqGSIb3DQEBBQUAMGYxCzAJBgNV
BAYTAlVTMRMwEQYDVQQIDApDYWxpZm9ybmlhMS0wKwYDVQQKDCRRdWFsY29tbSBD
b25uZWN0ZWQgRXhwZXJpZW5jZXMsIEluYy4xEzARBgNVBAMMCkFsbFBsYXkgQ0Ew
HhcNNzAwMTAxMDAwMDAwWhcNNDkxMjMxMjM1OTU5WjBwMQswCQYDVQQGEwJVUzET
MBEGA1UECAwKQ2FsaWZvcm5pYTEtMCsGA1UECgwkUXVhbGNvbW0gQ29ubmVjdGVk
IEV4cGVyaWVuY2VzLCBJbmMuMR0wGwYDVQQDDBRBbGxQbGF5IGZpcm13YXJlIHNh
bTCCASIwDQYJKoZIhvcNAQEBBQADggEPADCCAQoCggEBAKe0I32eJjuQ842qy5VS
siHTx+XfxgVRaSGXCRUieETToBdheKtqeTyPE6Ussm2WqmfT/5SCVXmphJG3uXDX
uQuXrVD3oAUA8WDIXmMUbJ5c0SZGksHJGRkwpGb+XcsqB3GOuhN3PCgEqqST+tVV
VkTpbCn+YA26IKc/5SOI50oOSSfAstSz1ignDWxPYkkQCCgTP6g0pc32TYrIVKZE
RMJzuIkIqf/AsM+v9w6y253Vp6da+H8DNUBRlqHxUv+h7Rablkv7mdA30rD7yvzX
Cd+K7J+HpD/SD17wGBOYt84FkBhBiNNoxACmhgCJeRzd6wleD/qGNwY+SWQH6yOW
vdkCAwEAAaN7MHkwCQYDVR0TBAIwADAsBglghkgBhvhCAQ0EHxYdT3BlblNTTCBH
ZW5lcmF0ZWQgQ2VydGlmaWNhdGUwHQYDVR0OBBYEFLbvw/SrRhvA8lFB0jKbA39f
X//VMB8GA1UdIwQYMBaAFA2jKMgd5MnYOt51UXwQmJGS0aXIMA0GCSqGSIb3DQEB
BQUAA4IBAQASGL6oIhmJ6NdaO/MW/fZ9K2SyyiS+Ai+nC8pNzc5xqD3uj4DKoGcp
Iy3Y5d/nAAdrJwUqQoFUz6AexEMj8W+CivHRCCcq2U/RQUDl5HAEoBOLip/m1R5d
VFuQUH6hi7gU+WAryKgRl4fxFwQkoWunldcc+tFWlMbVqfMfwKPzH+BnBzMK1rc9
Xymv99F0rXs3lHLH03mTmgUtNKv864U8LzernkQmRrze5r3rjI5l9ktwGT0LjCaw
0UcBe41dEyON7XnDedBMQk0hEV7uXpmCMH34gYBGeJQjKVVuMpbMBLhP1Bt0dfou
zVFHTt0Ic/nfigSan7TkElrx3UiK0JNf
-----END CERTIFICATE-----
