Certificate:
    Data:
        Version: 3 (0x2)
        Serial Number: 18271587361707953302 (0xfd91b7e6011e8c96)
    Signature Algorithm: sha1WithRSAEncryption
        Issuer: C=US, ST=California, O=Qualcomm Connected Experiences, Inc., CN=AllPlay CA
        Validity
            Not Before: Jan  1 00:00:00 1970 GMT
            Not After : Dec 31 23:59:59 2049 GMT
        Subject: C=US, ST=California, O=Qualcomm Connected Experiences, Inc., CN=AllPlay CA
        Subject Public Key Info:
            Public Key Algorithm: rsaEncryption
                Public-Key: (2048 bit)
                Modulus:
                    00:c9:92:ec:c8:fe:0e:d3:a4:ea:86:08:d1:25:c2:
                    15:b1:ae:65:95:ca:41:1f:8e:98:ed:cc:16:93:a6:
                    fd:86:74:fa:04:96:5b:7c:67:9d:23:ba:e0:ec:cd:
                    1d:50:db:23:11:2f:f3:57:43:2d:dd:f7:3e:27:03:
                    22:2d:06:16:80:17:1c:52:04:1a:c1:6d:74:58:0e:
                    29:fe:5c:4e:5f:bf:da:63:64:7c:65:a0:fa:38:88:
                    1d:5d:ce:5d:d8:74:21:3c:50:35:9c:7c:19:de:b7:
                    b7:f6:7a:15:8a:05:f9:c7:fd:a4:2b:2d:c8:b0:f8:
                    55:ed:ba:5b:a6:ca:76:68:c1:7e:ed:30:75:bc:3e:
                    3d:25:5e:12:98:1f:f8:3a:7e:5b:ca:55:9d:33:8d:
                    3a:8f:e9:ae:ee:93:76:5d:cc:be:c4:74:2d:7d:f0:
                    c5:c8:1e:06:17:8b:c9:a3:e2:e0:51:4b:c4:e6:65:
                    4f:45:c8:ef:1c:19:b7:6a:ca:c0:1c:5e:88:78:c3:
                    64:70:7a:1a:03:4d:5d:c5:c3:de:1e:74:5e:79:01:
                    7e:62:e9:55:0a:4c:a8:8f:68:85:ee:73:f1:1e:13:
                    51:41:24:e1:28:76:90:ab:78:ba:0e:1e:38:67:fc:
                    03:47:10:98:d2:1b:ba:cc:a9:c2:5e:0f:da:5a:ed:
                    94:09
                Exponent: 65537 (0x10001)
        X509v3 extensions:
            X509v3 Subject Key Identifier: 
                0D:A3:28:C8:1D:E4:C9:D8:3A:DE:75:51:7C:10:98:91:92:D1:A5:C8
            X509v3 Authority Key Identifier: 
                keyid:0D:A3:28:C8:1D:E4:C9:D8:3A:DE:75:51:7C:10:98:91:92:D1:A5:C8
                DirName:/C=US/ST=California/O=Qualcomm Connected Experiences, Inc./CN=AllPlay CA
                serial:FD:91:B7:E6:01:1E:8C:96

            X509v3 Basic Constraints: 
                CA:TRUE
    Signature Algorithm: sha1WithRSAEncryption
         10:03:aa:ae:64:d3:05:07:53:5e:62:33:a1:73:2e:c7:89:f1:
         e2:26:1a:e5:cb:22:b2:3f:8a:75:9b:34:66:25:91:2b:45:57:
         b6:53:d0:67:9d:f5:fa:16:cc:40:f0:45:ee:15:c1:e9:13:12:
         bf:ff:db:55:ca:ea:20:14:82:cc:e9:38:0e:8f:15:0c:dc:e0:
         a1:c6:10:b4:e8:e6:20:07:0f:b5:17:59:79:68:a2:ea:ec:f5:
         e0:d8:98:5e:fe:88:2c:c6:0d:19:51:d8:c0:de:27:4d:c7:98:
         14:d9:2a:2e:95:92:b1:79:ae:5a:a6:c6:cb:52:eb:fe:8d:fe:
         d5:17:5f:f6:eb:c0:60:0f:d9:a7:6f:3c:0e:82:ec:7f:16:c1:
         3a:dc:43:78:e5:fa:7b:f6:88:e2:0d:d0:c2:03:cb:37:d9:c0:
         e7:e4:a5:b4:89:ef:e5:98:07:91:3d:5e:f3:e6:cf:3f:60:4e:
         b4:d6:cb:9f:05:03:ac:a9:7b:74:e8:dc:0e:b2:02:c2:27:cf:
         af:9d:48:5a:79:9b:58:05:7b:2d:e1:77:81:39:13:04:84:3c:
         4a:8a:69:fe:f6:e0:0b:7d:2f:3f:7b:8b:b6:58:e9:89:d9:b1:
         fd:78:74:52:bd:08:c6:32:6a:4d:ba:12:5a:ca:ae:00:54:e6:
         48:6b:86:9d
-----BEGIN CERTIFICATE-----
MIIEGzCCAwOgAwIBAgIJAP2Rt+YBHoyWMA0GCSqGSIb3DQEBBQUAMGYxCzAJBgNV
BAYTAlVTMRMwEQYDVQQIDApDYWxpZm9ybmlhMS0wKwYDVQQKDCRRdWFsY29tbSBD
b25uZWN0ZWQgRXhwZXJpZW5jZXMsIEluYy4xEzARBgNVBAMMCkFsbFBsYXkgQ0Ew
HhcNNzAwMTAxMDAwMDAwWhcNNDkxMjMxMjM1OTU5WjBmMQswCQYDVQQGEwJVUzET
MBEGA1UECAwKQ2FsaWZvcm5pYTEtMCsGA1UECgwkUXVhbGNvbW0gQ29ubmVjdGVk
IEV4cGVyaWVuY2VzLCBJbmMuMRMwEQYDVQQDDApBbGxQbGF5IENBMIIBIjANBgkq
hkiG9w0BAQEFAAOCAQ8AMIIBCgKCAQEAyZLsyP4O06TqhgjRJcIVsa5llcpBH46Y
7cwWk6b9hnT6BJZbfGedI7rg7M0dUNsjES/zV0Mt3fc+JwMiLQYWgBccUgQawW10
WA4p/lxOX7/aY2R8ZaD6OIgdXc5d2HQhPFA1nHwZ3re39noVigX5x/2kKy3IsPhV
7bpbpsp2aMF+7TB1vD49JV4SmB/4On5bylWdM406j+mu7pN2Xcy+xHQtffDFyB4G
F4vJo+LgUUvE5mVPRcjvHBm3asrAHF6IeMNkcHoaA01dxcPeHnReeQF+YulVCkyo
j2iF7nPxHhNRQSThKHaQq3i6Dh44Z/wDRxCY0hu6zKnCXg/aWu2UCQIDAQABo4HL
MIHIMB0GA1UdDgQWBBQNoyjIHeTJ2DredVF8EJiRktGlyDCBmAYDVR0jBIGQMIGN
gBQNoyjIHeTJ2DredVF8EJiRktGlyKFqpGgwZjELMAkGA1UEBhMCVVMxEzARBgNV
BAgMCkNhbGlmb3JuaWExLTArBgNVBAoMJFF1YWxjb21tIENvbm5lY3RlZCBFeHBl
cmllbmNlcywgSW5jLjETMBEGA1UEAwwKQWxsUGxheSBDQYIJAP2Rt+YBHoyWMAwG
A1UdEwQFMAMBAf8wDQYJKoZIhvcNAQEFBQADggEBABADqq5k0wUHU15iM6FzLseJ
8eImGuXLIrI/inWbNGYlkStFV7ZT0Ged9foWzEDwRe4VwekTEr//21XK6iAUgszp
OA6PFQzc4KHGELTo5iAHD7UXWXloours9eDYmF7+iCzGDRlR2MDeJ03HmBTZKi6V
krF5rlqmxstS6/6N/tUXX/brwGAP2advPA6C7H8WwTrcQ3jl+nv2iOIN0MIDyzfZ
wOfkpbSJ7+WYB5E9XvPmzz9gTrTWy58FA6ype3To3A6yAsInz6+dSFp5m1gFey3h
d4E5EwSEPEqKaf724At9Lz97i7ZY6YnZsf14dFK9CMYyak26ElrKrgBU5khrhp0=
-----END CERTIFICATE-----
