Certificate:
    Data:
        Version: 3 (0x2)
        Serial Number: 14570107026835006318 (0xca336b2529ec636e)
    Signature Algorithm: sha1WithRSAEncryption
        Issuer: C=US, ST=California, O=Qualcomm Connected Experiences, Inc., CN=AllPlay CA
        Validity
            Not Before: Jan  1 00:00:00 1970 GMT
            Not After : Dec 31 23:59:59 2049 GMT
        Subject: C=US, ST=California, O=Qualcomm Connected Experiences, Inc., CN=AllPlay CA
        Subject Public Key Info:
            Public Key Algorithm: rsaEncryption
                Public-Key: (2048 bit)
                Modulus:
                    00:f8:d3:7a:5e:50:1d:f5:85:17:1e:0f:fe:af:73:
                    2f:aa:14:f2:f6:6f:a0:16:90:11:e9:2d:ef:31:89:
                    db:46:c0:f4:22:7e:a2:03:2c:f1:1a:31:44:97:c3:
                    cd:03:44:97:ab:0d:a9:83:a9:96:2a:a1:a0:42:c6:
                    09:42:e5:cd:7a:22:6d:f5:7e:1b:d6:2f:f2:b5:d7:
                    06:89:ca:ae:d4:65:e5:30:13:21:f7:39:3f:43:9f:
                    d7:cb:af:4d:be:ce:ea:36:f6:8c:50:8e:35:ca:91:
                    87:4f:bb:b8:75:f7:2d:b6:96:d7:d0:00:3c:74:04:
                    7d:dc:f4:40:4e:c5:3c:04:2f:6d:cf:9a:9b:83:98:
                    be:22:91:a7:86:f6:17:5c:b9:41:7e:f6:ed:0f:31:
                    4f:57:69:c5:90:58:b9:42:93:24:a8:dd:b0:13:4b:
                    fc:ac:2e:6c:52:c9:d0:0b:bb:23:65:b9:02:f3:5b:
                    cb:7c:9d:07:75:c3:d5:14:55:c2:50:10:31:cc:ec:
                    2b:04:51:fe:e4:1b:a8:4f:5b:63:0a:7c:ef:ee:a7:
                    e9:12:b7:40:ef:26:b0:94:dc:f1:09:5d:8b:b9:a2:
                    70:b9:b3:bd:fd:0c:02:cc:4f:8d:80:e4:9e:7c:f8:
                    0b:89:1b:75:76:47:d3:86:4c:a0:f8:6f:fe:8e:24:
                    ea:e5
                Exponent: 65537 (0x10001)
        X509v3 extensions:
            X509v3 Subject Key Identifier: 
                3B:97:12:76:87:57:9B:99:E8:14:9C:F7:FF:9F:CD:80:F2:AB:08:08
            X509v3 Authority Key Identifier: 
                keyid:3B:97:12:76:87:57:9B:99:E8:14:9C:F7:FF:9F:CD:80:F2:AB:08:08
                DirName:/C=US/ST=California/O=Qualcomm Connected Experiences, Inc./CN=AllPlay CA
                serial:CA:33:6B:25:29:EC:63:6E

            X509v3 Basic Constraints: 
                CA:TRUE
    Signature Algorithm: sha1WithRSAEncryption
         de:27:ac:9c:00:83:52:74:27:bd:05:a8:85:85:8c:d5:71:d9:
         fa:1a:9c:bb:40:77:7b:70:f9:78:b9:f8:bb:0c:76:b9:dc:f3:
         3e:eb:96:9a:e9:06:f3:ec:3d:1e:ed:bc:44:de:96:e8:82:d1:
         51:d4:98:fa:e0:f5:81:db:99:24:45:1a:5c:3f:ad:73:93:91:
         74:24:63:d3:7f:b9:e2:f1:dd:12:9d:0f:24:ed:10:c1:8b:45:
         18:d3:74:a7:16:1c:14:0b:f9:30:d7:72:44:30:63:af:98:3b:
         15:e2:0e:3d:5c:90:63:dc:17:ac:1a:9e:b5:b1:48:7e:4d:22:
         23:e8:cb:5b:ca:7c:ad:f3:46:cb:a5:56:45:6d:f6:06:fa:0c:
         36:07:87:96:27:eb:bd:72:c8:16:4f:18:7d:d4:67:1a:2b:f4:
         a5:67:3e:1d:34:7e:73:17:76:13:64:25:7f:6f:c1:ed:e6:3f:
         30:95:31:60:70:73:b2:a9:3a:b1:38:38:41:4f:b9:ac:95:23:
         61:a5:6f:f1:9f:76:07:62:d6:e5:63:82:6e:15:40:8e:43:54:
         bc:94:b2:61:9c:bb:9e:7a:1b:e3:85:b2:9c:05:42:7e:4d:46:
         ce:7a:ec:a3:9e:77:13:29:a3:b9:40:a2:a1:bf:66:4a:29:06:
         d6:00:81:eb
-----BEGIN CERTIFICATE-----
MIIEGzCCAwOgAwIBAgIJAMozayUp7GNuMA0GCSqGSIb3DQEBBQUAMGYxCzAJBgNV
BAYTAlVTMRMwEQYDVQQIDApDYWxpZm9ybmlhMS0wKwYDVQQKDCRRdWFsY29tbSBD
b25uZWN0ZWQgRXhwZXJpZW5jZXMsIEluYy4xEzARBgNVBAMMCkFsbFBsYXkgQ0Ew
HhcNNzAwMTAxMDAwMDAwWhcNNDkxMjMxMjM1OTU5WjBmMQswCQYDVQQGEwJVUzET
MBEGA1UECAwKQ2FsaWZvcm5pYTEtMCsGA1UECgwkUXVhbGNvbW0gQ29ubmVjdGVk
IEV4cGVyaWVuY2VzLCBJbmMuMRMwEQYDVQQDDApBbGxQbGF5IENBMIIBIjANBgkq
hkiG9w0BAQEFAAOCAQ8AMIIBCgKCAQEA+NN6XlAd9YUXHg/+r3MvqhTy9m+gFpAR
6S3vMYnbRsD0In6iAyzxGjFEl8PNA0SXqw2pg6mWKqGgQsYJQuXNeiJt9X4b1i/y
tdcGicqu1GXlMBMh9zk/Q5/Xy69Nvs7qNvaMUI41ypGHT7u4dfcttpbX0AA8dAR9
3PRATsU8BC9tz5qbg5i+IpGnhvYXXLlBfvbtDzFPV2nFkFi5QpMkqN2wE0v8rC5s
UsnQC7sjZbkC81vLfJ0HdcPVFFXCUBAxzOwrBFH+5BuoT1tjCnzv7qfpErdA7yaw
lNzxCV2LuaJwubO9/QwCzE+NgOSefPgLiRt1dkfThkyg+G/+jiTq5QIDAQABo4HL
MIHIMB0GA1UdDgQWBBQ7lxJ2h1ebmegUnPf/n82A8qsICDCBmAYDVR0jBIGQMIGN
gBQ7lxJ2h1ebmegUnPf/n82A8qsICKFqpGgwZjELMAkGA1UEBhMCVVMxEzARBgNV
BAgMCkNhbGlmb3JuaWExLTArBgNVBAoMJFF1YWxjb21tIENvbm5lY3RlZCBFeHBl
cmllbmNlcywgSW5jLjETMBEGA1UEAwwKQWxsUGxheSBDQYIJAMozayUp7GNuMAwG
A1UdEwQFMAMBAf8wDQYJKoZIhvcNAQEFBQADggEBAN4nrJwAg1J0J70FqIWFjNVx
2foanLtAd3tw+Xi5+LsMdrnc8z7rlprpBvPsPR7tvETeluiC0VHUmPrg9YHbmSRF
Glw/rXOTkXQkY9N/ueLx3RKdDyTtEMGLRRjTdKcWHBQL+TDXckQwY6+YOxXiDj1c
kGPcF6wanrWxSH5NIiPoy1vKfK3zRsulVkVt9gb6DDYHh5Yn671yyBZPGH3UZxor
9KVnPh00fnMXdhNkJX9vwe3mPzCVMWBwc7KpOrE4OEFPuayVI2Glb/Gfdgdi1uVj
gm4VQI5DVLyUsmGcu556G+OFspwFQn5NRs567KOedxMpo7lAoqG/ZkopBtYAges=
-----END CERTIFICATE-----
