Certificate:
    Data:
        Version: 3 (0x2)
        Serial Number: 14570107026835006320 (0xca336b2529ec6370)
    Signature Algorithm: sha1WithRSAEncryption
        Issuer: C=US, ST=California, O=Qualcomm Connected Experiences, Inc., CN=AllPlay CA
        Validity
            Not Before: Jan  1 00:00:00 1970 GMT
            Not After : Dec 31 23:59:59 2049 GMT
        Subject: C=US, ST=California, O=Qualcomm Connected Experiences, Inc., CN=AllPlay firmware sam
        Subject Public Key Info:
            Public Key Algorithm: rsaEncryption
                Public-Key: (2048 bit)
                Modulus:
                    00:bc:31:01:90:7f:81:bb:80:44:69:73:83:cd:d5:
                    84:cd:b9:62:be:24:7c:20:3a:e8:35:1f:b9:22:3e:
                    60:24:3c:88:db:db:eb:cd:e3:88:06:13:9b:6c:cc:
                    9a:a3:50:71:fe:eb:eb:17:27:de:0e:2d:bf:a8:02:
                    6e:34:b9:00:82:62:6b:79:21:a2:e7:ba:7a:09:38:
                    d5:5a:60:0d:77:54:0a:d6:72:42:11:16:21:8a:d7:
                    ff:70:11:48:bf:fe:08:91:e8:c6:25:10:ee:46:1a:
                    7b:d8:ba:ad:72:9c:ea:a1:de:97:84:c7:14:8d:59:
                    8a:09:ff:d8:93:76:58:3c:64:2a:e9:bc:1c:26:48:
                    52:37:ea:ac:54:15:34:13:cb:c8:5f:4b:0a:a9:ec:
                    a3:5f:a0:f8:bc:d3:fd:b3:11:d7:a3:c0:cf:24:3b:
                    a6:37:e4:0d:33:c4:b0:18:09:87:b9:0f:0f:b9:48:
                    b8:2d:56:d4:bc:40:17:ab:1d:fe:1f:bf:96:25:1e:
                    fc:cb:2c:5c:91:70:d0:de:b0:1e:20:2b:84:04:e1:
                    9f:80:7d:c7:28:17:6f:58:75:d9:af:a6:09:66:1b:
                    53:40:0b:23:73:fa:05:d6:4d:37:57:09:79:ae:4e:
                    dc:78:16:32:ad:8e:01:d7:57:c1:78:2e:85:79:11:
                    5e:03
                Exponent: 65537 (0x10001)
        X509v3 extensions:
            X509v3 Basic Constraints: 
                CA:FALSE
            Netscape Comment: 
                OpenSSL Generated Certificate
            X509v3 Subject Key Identifier: 
                65:19:59:E6:FB:DF:D6:AA:99:5A:F4:4F:6D:93:FC:98:B2:7A:5C:30
            X509v3 Authority Key Identifier: 
                keyid:3B:97:12:76:87:57:9B:99:E8:14:9C:F7:FF:9F:CD:80:F2:AB:08:08

    Signature Algorithm: sha1WithRSAEncryption
         45:0d:ef:cb:41:2e:cb:5a:6f:cc:58:7e:77:fb:d1:46:0f:27:
         28:17:c3:94:d5:29:81:12:03:19:ed:34:05:0d:0e:1e:3a:06:
         af:5e:74:b8:8d:f6:6b:65:99:f2:47:81:a0:53:2e:e9:1a:c5:
         3b:5a:8a:c1:c1:56:dc:45:b8:95:d8:d1:ef:4f:7e:7c:3e:fe:
         79:33:5e:f5:ae:f6:c2:7a:8d:95:3e:29:4b:41:21:64:d9:72:
         95:77:c0:d3:2f:f5:67:bc:05:92:02:9d:53:9b:71:f5:66:28:
         e6:16:ad:f0:7f:53:ae:94:c9:ae:92:6e:c1:71:f2:66:88:b1:
         c0:b9:3e:5b:e2:ab:fa:ea:bd:ea:fd:4e:a5:3f:33:86:1b:8b:
         6e:d3:55:ee:63:59:34:97:1d:72:ca:2d:3a:40:25:38:dc:e4:
         e5:bb:91:17:af:d6:f0:f5:42:2a:bf:6a:5c:83:82:04:0f:e6:
         59:bd:20:1a:95:fe:6a:87:95:e6:d2:d2:c2:dd:e0:92:8f:56:
         67:b9:cf:a2:13:c0:cd:ea:a3:f4:79:59:1f:77:69:54:1c:98:
         c2:64:63:12:45:6b:74:60:2b:11:0a:74:fe:1f:1f:e6:0c:69:
         db:56:2d:dd:09:15:9e:82:69:22:d4:9e:8d:ba:6c:20:e2:ea:
         8c:e4:f6:db
-----BEGIN CERTIFICATE-----
MIID1DCCArygAwIBAgIJAMozayUp7GNwMA0GCSqGSIb3DQEBBQUAMGYxCzAJBgNV
BAYTAlVTMRMwEQYDVQQIDApDYWxpZm9ybmlhMS0wKwYDVQQKDCRRdWFsY29tbSBD
b25uZWN0ZWQgRXhwZXJpZW5jZXMsIEluYy4xEzARBgNVBAMMCkFsbFBsYXkgQ0Ew
HhcNNzAwMTAxMDAwMDAwWhcNNDkxMjMxMjM1OTU5WjBwMQswCQYDVQQGEwJVUzET
MBEGA1UECAwKQ2FsaWZvcm5pYTEtMCsGA1UECgwkUXVhbGNvbW0gQ29ubmVjdGVk
IEV4cGVyaWVuY2VzLCBJbmMuMR0wGwYDVQQDDBRBbGxQbGF5IGZpcm13YXJlIHNh
bTCCASIwDQYJKoZIhvcNAQEBBQADggEPADCCAQoCggEBALwxAZB/gbuARGlzg83V
hM25Yr4kfCA66DUfuSI+YCQ8iNvb683jiAYTm2zMmqNQcf7r6xcn3g4tv6gCbjS5
AIJia3khoue6egk41VpgDXdUCtZyQhEWIYrX/3ARSL/+CJHoxiUQ7kYae9i6rXKc
6qHel4THFI1Zign/2JN2WDxkKum8HCZIUjfqrFQVNBPLyF9LCqnso1+g+LzT/bMR
16PAzyQ7pjfkDTPEsBgJh7kPD7lIuC1W1LxAF6sd/h+/liUe/MssXJFw0N6wHiAr
hAThn4B9xygXb1h12a+mCWYbU0ALI3P6BdZNN1cJea5O3HgWMq2OAddXwXguhXkR
XgMCAwEAAaN7MHkwCQYDVR0TBAIwADAsBglghkgBhvhCAQ0EHxYdT3BlblNTTCBH
ZW5lcmF0ZWQgQ2VydGlmaWNhdGUwHQYDVR0OBBYEFGUZWeb739aqmVr0T22T/Jiy
elwwMB8GA1UdIwQYMBaAFDuXEnaHV5uZ6BSc9/+fzYDyqwgIMA0GCSqGSIb3DQEB
BQUAA4IBAQBFDe/LQS7LWm/MWH53+9FGDycoF8OU1SmBEgMZ7TQFDQ4eOgavXnS4
jfZrZZnyR4GgUy7pGsU7WorBwVbcRbiV2NHvT358Pv55M171rvbCeo2VPilLQSFk
2XKVd8DTL/VnvAWSAp1Tm3H1ZijmFq3wf1OulMmukm7BcfJmiLHAuT5b4qv66r3q
/U6lPzOGG4tu01XuY1k0lx1yyi06QCU43OTlu5EXr9bw9UIqv2pcg4IED+ZZvSAa
lf5qh5Xm0tLC3eCSj1Znuc+iE8DN6qP0eVkfd2lUHJjCZGMSRWt0YCsRCnT+Hx/m
DGnbVi3dCRWegmki1J6Numwg4uqM5Pbb
-----END CERTIFICATE-----
