Certificate:
    Data:
        Version: 3 (0x2)
        Serial Number: 14570107026835006319 (0xca336b2529ec636f)
    Signature Algorithm: sha1WithRSAEncryption
        Issuer: C=US, ST=California, O=Qualcomm Connected Experiences, Inc., CN=AllPlay CA
        Validity
            Not Before: Jan  1 00:00:00 1970 GMT
            Not After : Dec 31 23:59:59 2049 GMT
        Subject: C=US, ST=California, O=Qualcomm Connected Experiences, Inc., CN=AllPlay firmware oem
        Subject Public Key Info:
            Public Key Algorithm: rsaEncryption
                Public-Key: (2048 bit)
                Modulus:
                    00:bb:58:c1:35:1a:c9:00:8e:cd:53:2b:f9:69:fb:
                    9f:bc:25:bf:86:57:31:da:b8:dc:19:21:6d:22:43:
                    c8:04:60:64:b7:89:ce:36:93:65:ad:07:fe:e3:4b:
                    84:f4:21:00:3c:89:b4:6a:42:c5:53:34:f3:cc:15:
                    5e:cc:af:2b:53:e2:38:64:a5:fd:69:51:1a:29:11:
                    c6:9f:70:db:7a:fe:f5:71:45:b9:bd:e2:13:8f:a8:
                    72:17:01:3a:6f:eb:d1:ef:7c:8c:0b:4f:79:1d:9f:
                    93:89:b6:a4:82:f0:62:49:3b:63:90:33:6f:7d:81:
                    73:df:bf:df:e3:d5:93:22:bb:cf:f8:16:6d:40:6f:
                    c3:a6:b0:8f:ff:8a:b0:98:0a:6c:3c:a3:c6:b9:03:
                    29:d7:83:63:2c:3b:21:0f:08:88:e4:8c:63:a8:f2:
                    43:f2:2c:f3:73:1e:88:f7:7d:11:e1:95:27:50:4f:
                    74:1d:1f:16:ad:dc:d0:ec:59:d0:b7:c6:0f:a9:58:
                    e0:46:db:2b:a3:fe:a0:32:c9:a9:d9:4d:c7:c0:f3:
                    43:ce:63:07:e2:f4:85:04:b3:eb:94:ca:29:e4:06:
                    a6:da:6b:08:0c:80:76:d5:09:11:fc:e2:55:d3:b9:
                    8d:fd:0b:8e:27:60:bc:a7:a1:2f:81:fd:16:55:24:
                    a0:b9
                Exponent: 65537 (0x10001)
        X509v3 extensions:
            X509v3 Basic Constraints: 
                CA:FALSE
            Netscape Comment: 
                OpenSSL Generated Certificate
            X509v3 Subject Key Identifier: 
                1F:00:25:A4:1B:37:2F:D9:1F:DA:69:2A:D4:A9:71:D8:E3:4C:8C:F1
            X509v3 Authority Key Identifier: 
                keyid:3B:97:12:76:87:57:9B:99:E8:14:9C:F7:FF:9F:CD:80:F2:AB:08:08

    Signature Algorithm: sha1WithRSAEncryption
         e0:5c:c7:54:1b:c7:2d:9c:67:4f:39:cd:d2:3d:8d:a1:f6:a5:
         70:03:be:61:d0:ff:c1:36:07:3c:ab:7d:9e:6b:e8:1e:cd:f4:
         11:bf:3b:6a:a2:50:ab:fb:2b:ac:d4:79:d0:c5:0b:e2:0f:06:
         5f:a4:a2:85:36:2d:e1:35:13:50:89:12:45:e1:8a:de:db:b6:
         c3:4f:05:12:7e:d0:70:de:87:d1:0c:b1:6a:69:76:3b:eb:b9:
         0d:5d:7a:44:d8:41:e5:ee:8c:eb:e2:bb:16:2f:20:a0:ba:3a:
         3e:d7:48:f4:0e:1a:3b:03:15:a2:b8:fa:39:0e:69:8c:0b:5d:
         61:6c:7c:b1:e8:02:7b:04:4a:50:6e:09:2c:d4:ed:2e:ba:27:
         51:af:4d:fa:b7:ea:75:d7:c1:55:d5:a5:53:4c:d2:56:85:e8:
         20:40:e7:55:70:1b:94:c6:45:75:03:7c:21:94:96:86:c2:5a:
         1b:4a:7d:c7:fb:e7:cb:1b:bb:cb:14:d1:e2:fd:7f:05:b3:c2:
         77:4b:63:05:7b:4d:2d:ae:6d:ad:6d:eb:e0:69:c2:a8:cb:15:
         2d:d3:dc:78:05:ab:ec:fa:9e:ab:a6:a2:a4:ce:bc:a0:b5:3e:
         1a:27:4f:d4:66:33:ed:e4:f4:d7:e9:7f:ac:21:e6:c0:37:47:
         ae:5f:25:34
-----BEGIN CERTIFICATE-----
MIID1DCCArygAwIBAgIJAMozayUp7GNvMA0GCSqGSIb3DQEBBQUAMGYxCzAJBgNV
BAYTAlVTMRMwEQYDVQQIDApDYWxpZm9ybmlhMS0wKwYDVQQKDCRRdWFsY29tbSBD
b25uZWN0ZWQgRXhwZXJpZW5jZXMsIEluYy4xEzARBgNVBAMMCkFsbFBsYXkgQ0Ew
HhcNNzAwMTAxMDAwMDAwWhcNNDkxMjMxMjM1OTU5WjBwMQswCQYDVQQGEwJVUzET
MBEGA1UECAwKQ2FsaWZvcm5pYTEtMCsGA1UECgwkUXVhbGNvbW0gQ29ubmVjdGVk
IEV4cGVyaWVuY2VzLCBJbmMuMR0wGwYDVQQDDBRBbGxQbGF5IGZpcm13YXJlIG9l
bTCCASIwDQYJKoZIhvcNAQEBBQADggEPADCCAQoCggEBALtYwTUayQCOzVMr+Wn7
n7wlv4ZXMdq43BkhbSJDyARgZLeJzjaTZa0H/uNLhPQhADyJtGpCxVM088wVXsyv
K1PiOGSl/WlRGikRxp9w23r+9XFFub3iE4+ochcBOm/r0e98jAtPeR2fk4m2pILw
Ykk7Y5Azb32Bc9+/3+PVkyK7z/gWbUBvw6awj/+KsJgKbDyjxrkDKdeDYyw7IQ8I
iOSMY6jyQ/Is83MeiPd9EeGVJ1BPdB0fFq3c0OxZ0LfGD6lY4EbbK6P+oDLJqdlN
x8DzQ85jB+L0hQSz65TKKeQGptprCAyAdtUJEfziVdO5jf0LjidgvKehL4H9FlUk
oLkCAwEAAaN7MHkwCQYDVR0TBAIwADAsBglghkgBhvhCAQ0EHxYdT3BlblNTTCBH
ZW5lcmF0ZWQgQ2VydGlmaWNhdGUwHQYDVR0OBBYEFB8AJaQbNy/ZH9ppKtSpcdjj
TIzxMB8GA1UdIwQYMBaAFDuXEnaHV5uZ6BSc9/+fzYDyqwgIMA0GCSqGSIb3DQEB
BQUAA4IBAQDgXMdUG8ctnGdPOc3SPY2h9qVwA75h0P/BNgc8q32ea+gezfQRvztq
olCr+yus1HnQxQviDwZfpKKFNi3hNRNQiRJF4Yre27bDTwUSftBw3ofRDLFqaXY7
67kNXXpE2EHl7ozr4rsWLyCgujo+10j0Dho7AxWiuPo5DmmMC11hbHyx6AJ7BEpQ
bgks1O0uuidRr036t+p118FV1aVTTNJWheggQOdVcBuUxkV1A3whlJaGwlobSn3H
++fLG7vLFNHi/X8Fs8J3S2MFe00trm2tbevgacKoyxUt09x4Bavs+p6rpqKkzryg
tT4aJ0/UZjPt5PTX6X+sIebAN0euXyU0
-----END CERTIFICATE-----
