Certificate:
    Data:
        Version: 3 (0x2)
        Serial Number:
            e3:6d:09:11:4e:ca:8b:bf
    Signature Algorithm: sha1WithRSAEncryption
        Issuer: C=US, ST=California, O=Qualcomm Connected Experiences, Inc., CN=AllPlay CA
        Validity
            Not Before: Jan  1 00:00:00 1970 GMT
            Not After : Dec 31 23:59:59 2049 GMT
        Subject: C=US, ST=California, O=Qualcomm Connected Experiences, Inc., CN=AllPlay CA
        Subject Public Key Info:
            Public Key Algorithm: rsaEncryption
                Public-Key: (2048 bit)
                Modulus:
                    00:a1:93:0a:24:59:ab:7e:c6:45:01:a9:f7:40:a1:
                    95:db:cf:8b:91:e1:c6:23:43:23:4e:a6:aa:61:6c:
                    55:05:65:21:09:95:38:a4:45:24:6f:18:30:08:1f:
                    58:e9:46:ca:b8:3d:b6:e8:2f:58:98:ec:3b:4b:40:
                    da:c2:e4:4a:4d:3e:a3:60:3b:8a:0a:5c:66:ad:ed:
                    ed:69:13:56:7b:ef:46:41:e5:eb:2c:a0:2e:b2:6b:
                    ec:3b:6d:c5:30:44:4b:cd:b0:2e:b3:de:22:dc:2e:
                    dd:a4:d5:33:3f:9b:9c:2b:f0:b5:64:5b:f3:7d:7d:
                    eb:05:2f:bd:03:a8:a5:9e:0d:15:b9:0e:6a:5d:47:
                    00:14:16:b4:11:bf:a2:75:1d:f5:90:59:84:3a:b5:
                    96:ab:74:2f:6a:12:35:f2:cc:90:97:3c:b2:f0:07:
                    17:30:dd:be:34:8f:94:65:53:e5:4f:e2:52:ae:f2:
                    0b:ed:88:3c:4d:aa:a9:1b:af:e4:bd:41:51:ad:35:
                    9f:f4:4a:f5:26:8a:10:36:86:82:bf:cf:aa:ff:76:
                    1e:5c:cc:76:89:0b:7c:9c:55:16:e1:59:93:51:8e:
                    34:26:cc:6e:c5:b3:71:e4:42:92:31:38:64:2e:5c:
                    24:9d:9c:86:0f:b1:8a:4a:bc:64:94:cb:f3:19:97:
                    8b:79
                Exponent: 65537 (0x10001)
        X509v3 extensions:
            X509v3 Subject Key Identifier: 
                04:01:FE:FA:9C:1D:5A:11:B8:D1:80:61:AC:A7:19:EA:D8:15:53:0D
            X509v3 Authority Key Identifier: 
                keyid:04:01:FE:FA:9C:1D:5A:11:B8:D1:80:61:AC:A7:19:EA:D8:15:53:0D
                DirName:/C=US/ST=California/O=Qualcomm Connected Experiences, Inc./CN=AllPlay CA
                serial:E3:6D:09:11:4E:CA:8B:BF

            X509v3 Basic Constraints: 
                CA:TRUE
    Signature Algorithm: sha1WithRSAEncryption
         69:dc:c1:e1:a5:5a:1e:11:5e:e0:8b:5d:37:08:41:7c:92:f0:
         6e:a2:5a:26:b3:43:1d:98:66:3a:ff:18:c8:ba:a9:ac:41:0f:
         a7:e9:de:77:86:84:19:52:8e:a7:85:c7:07:8c:2e:c1:6f:46:
         ff:93:e1:d1:53:8a:1d:88:b0:c4:5b:5c:f4:2e:33:a9:62:74:
         c2:77:fd:c1:14:60:fd:30:64:7c:48:d7:10:57:03:a5:c1:34:
         5b:dd:e4:f9:05:bd:77:3a:64:84:1e:4c:79:6d:db:5d:15:8c:
         f2:87:a7:52:ae:cd:2e:72:62:0c:1b:14:ea:73:20:5d:bb:71:
         96:08:b6:f7:f2:12:47:41:de:9a:6a:aa:09:74:1d:36:0f:92:
         62:96:d3:b5:c3:8d:12:bb:38:94:7a:19:e8:94:21:56:42:67:
         cc:95:33:f3:9e:ef:b0:bb:ca:d8:a6:6c:cf:d0:a5:96:db:dd:
         84:0c:ab:f3:7c:45:84:c9:83:5e:96:7e:38:81:89:9c:1d:6d:
         d1:48:31:45:f9:4b:c5:50:87:bf:51:a9:ff:b5:2a:2e:2d:17:
         40:30:eb:e1:97:db:62:c0:2c:82:85:52:c7:72:df:05:99:09:
         03:79:f2:ba:09:48:3c:ba:96:ca:4c:6e:bb:a0:6f:68:ff:6a:
         94:6b:a0:a4
-----BEGIN CERTIFICATE-----
MIIEGzCCAwOgAwIBAgIJAONtCRFOyou/MA0GCSqGSIb3DQEBBQUAMGYxCzAJBgNV
BAYTAlVTMRMwEQYDVQQIDApDYWxpZm9ybmlhMS0wKwYDVQQKDCRRdWFsY29tbSBD
b25uZWN0ZWQgRXhwZXJpZW5jZXMsIEluYy4xEzARBgNVBAMMCkFsbFBsYXkgQ0Ew
HhcNNzAwMTAxMDAwMDAwWhcNNDkxMjMxMjM1OTU5WjBmMQswCQYDVQQGEwJVUzET
MBEGA1UECAwKQ2FsaWZvcm5pYTEtMCsGA1UECgwkUXVhbGNvbW0gQ29ubmVjdGVk
IEV4cGVyaWVuY2VzLCBJbmMuMRMwEQYDVQQDDApBbGxQbGF5IENBMIIBIjANBgkq
hkiG9w0BAQEFAAOCAQ8AMIIBCgKCAQEAoZMKJFmrfsZFAan3QKGV28+LkeHGI0Mj
TqaqYWxVBWUhCZU4pEUkbxgwCB9Y6UbKuD226C9YmOw7S0DawuRKTT6jYDuKClxm
re3taRNWe+9GQeXrLKAusmvsO23FMERLzbAus94i3C7dpNUzP5ucK/C1ZFvzfX3r
BS+9A6ilng0VuQ5qXUcAFBa0Eb+idR31kFmEOrWWq3QvahI18syQlzyy8AcXMN2+
NI+UZVPlT+JSrvIL7Yg8TaqpG6/kvUFRrTWf9Er1JooQNoaCv8+q/3YeXMx2iQt8
nFUW4VmTUY40JsxuxbNx5EKSMThkLlwknZyGD7GKSrxklMvzGZeLeQIDAQABo4HL
MIHIMB0GA1UdDgQWBBQEAf76nB1aEbjRgGGspxnq2BVTDTCBmAYDVR0jBIGQMIGN
gBQEAf76nB1aEbjRgGGspxnq2BVTDaFqpGgwZjELMAkGA1UEBhMCVVMxEzARBgNV
BAgMCkNhbGlmb3JuaWExLTArBgNVBAoMJFF1YWxjb21tIENvbm5lY3RlZCBFeHBl
cmllbmNlcywgSW5jLjETMBEGA1UEAwwKQWxsUGxheSBDQYIJAONtCRFOyou/MAwG
A1UdEwQFMAMBAf8wDQYJKoZIhvcNAQEFBQADggEBAGncweGlWh4RXuCLXTcIQXyS
8G6iWiazQx2YZjr/GMi6qaxBD6fp3neGhBlSjqeFxweMLsFvRv+T4dFTih2IsMRb
XPQuM6lidMJ3/cEUYP0wZHxI1xBXA6XBNFvd5PkFvXc6ZIQeTHlt210VjPKHp1Ku
zS5yYgwbFOpzIF27cZYItvfyEkdB3ppqqgl0HTYPkmKW07XDjRK7OJR6GeiUIVZC
Z8yVM/Oe77C7ytimbM/QpZbb3YQMq/N8RYTJg16WfjiBiZwdbdFIMUX5S8VQh79R
qf+1Ki4tF0Aw6+GX22LALIKFUsdy3wWZCQN58roJSDy6lspMbrugb2j/apRroKQ=
-----END CERTIFICATE-----
