Certificate:
    Data:
        Version: 3 (0x2)
        Serial Number:
            e3:6d:09:11:4e:ca:8b:c0
    Signature Algorithm: sha1WithRSAEncryption
        Issuer: C=US, ST=California, O=Qualcomm Connected Experiences, Inc., CN=AllPlay CA
        Validity
            Not Before: Jan  1 00:00:00 1970 GMT
            Not After : Dec 31 23:59:59 2049 GMT
        Subject: C=US, ST=California, O=Qualcomm Connected Experiences, Inc., CN=AllPlay firmware oem
        Subject Public Key Info:
            Public Key Algorithm: rsaEncryption
                Public-Key: (2048 bit)
                Modulus:
                    00:c2:f7:d9:59:c3:1c:ce:31:eb:1e:8b:a5:0f:29:
                    41:1b:50:04:a6:92:50:c3:f7:1f:b6:49:2b:6a:c7:
                    65:c8:3e:50:87:e7:16:76:a8:08:01:89:6c:4e:02:
                    37:06:c1:60:71:a0:cb:9a:0c:d2:b8:a6:d2:65:2a:
                    b9:c1:f9:57:80:40:ab:3c:e6:75:d4:26:ca:01:5d:
                    be:6f:a2:3e:a6:fe:73:e3:ad:97:b2:bf:b0:0a:9f:
                    fa:36:fd:03:c4:b3:89:07:00:75:46:3b:b3:b6:e7:
                    3d:75:64:d6:4b:ac:a5:c9:4a:bb:43:7d:a6:e9:67:
                    17:f4:19:6c:26:d3:57:ab:7f:9b:ae:9b:34:3f:8c:
                    bb:2f:1f:77:30:47:2d:fa:b9:d4:a6:e8:05:c8:57:
                    e1:75:db:49:17:75:f9:4d:89:37:d8:5e:33:12:7e:
                    a4:a6:42:2c:63:13:42:7d:4e:ef:ff:c2:c2:3a:58:
                    08:d9:69:1f:ee:fb:c0:15:7a:43:dc:02:c2:62:95:
                    9b:eb:d3:75:fd:18:13:c9:22:07:b5:b2:33:d6:8e:
                    cf:a6:73:98:48:2b:15:76:b0:22:25:0c:a4:be:4e:
                    18:cb:1a:cd:39:bc:0e:ee:4b:d7:6e:34:dd:6c:f8:
                    28:08:33:4c:e5:a6:2a:d8:62:0a:78:08:3c:3b:df:
                    3b:7d
                Exponent: 65537 (0x10001)
        X509v3 extensions:
            X509v3 Basic Constraints: 
                CA:FALSE
            Netscape Comment: 
                OpenSSL Generated Certificate
            X509v3 Subject Key Identifier: 
                DB:EB:23:F2:BB:87:8A:92:BB:54:C1:61:0A:01:B6:32:56:4D:D6:D9
            X509v3 Authority Key Identifier: 
                keyid:04:01:FE:FA:9C:1D:5A:11:B8:D1:80:61:AC:A7:19:EA:D8:15:53:0D

    Signature Algorithm: sha1WithRSAEncryption
         24:7c:0b:22:3c:6e:40:08:29:b4:d0:9b:90:27:f4:5c:38:29:
         38:0f:7b:f2:9c:4f:1d:b5:97:12:2f:57:f5:e1:d9:d5:f2:81:
         d8:bf:51:a0:ef:5d:77:55:30:78:ce:67:12:47:3d:65:65:ca:
         38:33:d6:b7:d8:20:3e:63:38:d4:a9:51:ae:c3:40:a4:d1:b5:
         96:70:1c:c4:26:14:64:13:ba:42:bf:0f:8f:55:74:1c:56:04:
         95:98:8d:d4:6c:76:52:20:10:8b:3b:22:aa:47:2c:0d:8c:03:
         39:c5:ed:08:60:97:3e:bf:5c:29:2c:b9:92:ae:f1:b8:86:4c:
         4b:8e:2f:72:7f:a7:78:0e:70:b7:34:cb:6d:13:bb:06:85:c6:
         4e:57:fd:ee:da:67:3d:74:43:39:d7:56:1a:e8:4c:09:ac:23:
         9b:5b:f7:ba:4d:b3:70:42:9c:96:a9:e6:47:c7:9e:1f:49:9e:
         19:07:ce:80:56:4b:ad:c1:67:f8:a7:cb:98:8e:7c:2b:bc:b4:
         a8:b1:35:04:e7:c9:00:29:ad:b1:a4:eb:30:01:b3:ac:86:ce:
         3b:27:02:e0:65:ae:37:c0:72:65:38:4a:f8:ad:89:2e:8b:5f:
         19:d2:85:5a:d0:52:8f:6b:10:6a:d8:f6:d0:b5:cd:c9:e0:d1:
         51:03:9a:78
-----BEGIN CERTIFICATE-----
MIID1DCCArygAwIBAgIJAONtCRFOyovAMA0GCSqGSIb3DQEBBQUAMGYxCzAJBgNV
BAYTAlVTMRMwEQYDVQQIDApDYWxpZm9ybmlhMS0wKwYDVQQKDCRRdWFsY29tbSBD
b25uZWN0ZWQgRXhwZXJpZW5jZXMsIEluYy4xEzARBgNVBAMMCkFsbFBsYXkgQ0Ew
HhcNNzAwMTAxMDAwMDAwWhcNNDkxMjMxMjM1OTU5WjBwMQswCQYDVQQGEwJVUzET
MBEGA1UECAwKQ2FsaWZvcm5pYTEtMCsGA1UECgwkUXVhbGNvbW0gQ29ubmVjdGVk
IEV4cGVyaWVuY2VzLCBJbmMuMR0wGwYDVQQDDBRBbGxQbGF5IGZpcm13YXJlIG9l
bTCCASIwDQYJKoZIhvcNAQEBBQADggEPADCCAQoCggEBAML32VnDHM4x6x6LpQ8p
QRtQBKaSUMP3H7ZJK2rHZcg+UIfnFnaoCAGJbE4CNwbBYHGgy5oM0rim0mUqucH5
V4BAqzzmddQmygFdvm+iPqb+c+Otl7K/sAqf+jb9A8SziQcAdUY7s7bnPXVk1kus
pclKu0N9pulnF/QZbCbTV6t/m66bND+Muy8fdzBHLfq51KboBchX4XXbSRd1+U2J
N9heMxJ+pKZCLGMTQn1O7//CwjpYCNlpH+77wBV6Q9wCwmKVm+vTdf0YE8kiB7Wy
M9aOz6ZzmEgrFXawIiUMpL5OGMsazTm8Du5L12403Wz4KAgzTOWmKthiCngIPDvf
O30CAwEAAaN7MHkwCQYDVR0TBAIwADAsBglghkgBhvhCAQ0EHxYdT3BlblNTTCBH
ZW5lcmF0ZWQgQ2VydGlmaWNhdGUwHQYDVR0OBBYEFNvrI/K7h4qSu1TBYQoBtjJW
TdbZMB8GA1UdIwQYMBaAFAQB/vqcHVoRuNGAYaynGerYFVMNMA0GCSqGSIb3DQEB
BQUAA4IBAQAkfAsiPG5ACCm00JuQJ/RcOCk4D3vynE8dtZcSL1f14dnV8oHYv1Gg
7113VTB4zmcSRz1lZco4M9a32CA+YzjUqVGuw0Ck0bWWcBzEJhRkE7pCvw+PVXQc
VgSVmI3UbHZSIBCLOyKqRywNjAM5xe0IYJc+v1wpLLmSrvG4hkxLji9yf6d4DnC3
NMttE7sGhcZOV/3u2mc9dEM511Ya6EwJrCObW/e6TbNwQpyWqeZHx54fSZ4ZB86A
VkutwWf4p8uYjnwrvLSosTUE58kAKa2xpOswAbOshs47JwLgZa43wHJlOEr4rYku
i18Z0oVa0FKPaxBq2PbQtc3J4NFRA5p4
-----END CERTIFICATE-----
